; Function Attrs: nounwind uwtable
define ptr @l___private_Lean_Elab_Open_0__Lean_Elab_OpenDecl_resolveNameUsingNamespacesCore___rarg___lambda__4___boxed(ptr noundef %0, ptr noundef %1, ptr noundef %2, ptr noundef %3, ptr noundef %4, ptr noundef %5, ptr noundef %6, ptr noundef %7, ptr noundef %8, ptr noundef %9, ptr noundef %10) #0 {
  %12 = tail call ptr @l___private_Lean_Elab_Open_0__Lean_Elab_OpenDecl_resolveNameUsingNamespacesCore___rarg___lambda__4(ptr noundef %0, ptr noundef %1, ptr noundef %2, ptr noundef %3, ptr noundef %4, ptr noundef %5, ptr noundef %6, ptr noundef %7, ptr noundef %8, ptr noundef %9, ptr noundef %10)
  %13 = ptrtoint ptr %7 to i64
  %14 = and i64 %13, 1
  %.not = icmp eq i64 %14, 0
  br i1 %.not, label %15, label %lean_dec.exit

15:                                               ; preds = %11
  %16 = load i32, ptr %7, align 4, !tbaa !8
  %17 = icmp sgt i32 %16, 1
  br i1 %17, label %18, label %20, !prof !11

18:                                               ; preds = %15
  %19 = add nsw i32 %16, -1
  store i32 %19, ptr %7, align 4, !tbaa !8
  br label %lean_dec.exit

20:                                               ; preds = %15
  %.not.i = icmp eq i32 %16, 0
  br i1 %.not.i, label %lean_dec.exit, label %21

21:                                               ; preds = %20
  tail call void @lean_dec_ref_cold(ptr noundef nonnull %7) #6
  br label %lean_dec.exit

lean_dec.exit:                                    ; preds = %21, %20, %18, %11
  ret ptr %12
}